; Function Attrs: mustprogress uwtable
define dso_local noundef i32 @stbi_write_tga(ptr nocapture noundef readonly %0, i32 noundef %1, i32 noundef %2, i32 noundef %3, ptr noundef %4) local_unnamed_addr #3 {
  %6 = alloca %struct.stbi__write_context, align 8
  %7 = tail call noalias ptr @fopen(ptr noundef %0, ptr noundef nonnull @.str.5)
  store ptr @_ZL17stbi__stdio_writePvS_i, ptr %6, align 8
  %8 = getelementptr inbounds i8, ptr %6, i64 8
  store ptr %7, ptr %8, align 8
  %.not6 = icmp eq ptr %7, null
  br i1 %.not6, label %12, label %9

9:                                                ; preds = %5
  %10 = call fastcc noundef i32 @_ZL19stbi_write_tga_coreP19stbi__write_contextiiiPv(ptr noundef nonnull %6, i32 noundef %1, i32 noundef %2, i32 noundef %3, ptr noundef %4), !range !5
  %11 = tail call i32 @fclose(ptr noundef nonnull %7)
  br label %12

12:                                               ; preds = %5, %9
  %.0 = phi i32 [ %10, %9 ], [ 0, %5 ]
  ret i32 %.0
}